target datalayout = "e-m:e-p270:32:32-p271:32:32-p272:64:64-i64:64-i128:128-f80:128-n8:16:32:64-S128"
target triple = "x86_64-unknown-linux-gnu"

%struct.alts_handshaker_client_vtable = type { ptr, ptr, ptr, ptr, ptr }
%struct.alts_handshaker_client = type { ptr }

; Function Attrs: mustprogress uwtable
define void @_Z31alts_handshaker_client_shutdownP22alts_handshaker_client(ptr noundef %client) #4 {
entry:
  %client.addr = alloca ptr, align 8
  store ptr %client, ptr %client.addr, align 8
  %0 = load ptr, ptr %client.addr, align 8
  %cmp = icmp ne ptr %0, null
  br i1 %cmp, label %land.lhs.true, label %if.end

land.lhs.true:                                    ; preds = %entry
  %1 = load ptr, ptr %client.addr, align 8
  %vtable = getelementptr inbounds %struct.alts_handshaker_client, ptr %1, i32 0, i32 0
  %2 = load ptr, ptr %vtable, align 8
  %cmp1 = icmp ne ptr %2, null
  br i1 %cmp1, label %land.lhs.true2, label %if.end

land.lhs.true2:                                   ; preds = %land.lhs.true
  %3 = load ptr, ptr %client.addr, align 8
  %vtable3 = getelementptr inbounds %struct.alts_handshaker_client, ptr %3, i32 0, i32 0
  %4 = load ptr, ptr %vtable3, align 8
  %shutdown = getelementptr inbounds %struct.alts_handshaker_client_vtable, ptr %4, i32 0, i32 3
  %5 = load ptr, ptr %shutdown, align 8
  %cmp4 = icmp ne ptr %5, null
  br i1 %cmp4, label %if.then, label %if.end

if.then:                                          ; preds = %land.lhs.true2
  %6 = load ptr, ptr %client.addr, align 8
  %vtable5 = getelementptr inbounds %struct.alts_handshaker_client, ptr %6, i32 0, i32 0
  %7 = load ptr, ptr %vtable5, align 8
  %shutdown6 = getelementptr inbounds %struct.alts_handshaker_client_vtable, ptr %7, i32 0, i32 3
  %8 = load ptr, ptr %shutdown6, align 8
  %9 = load ptr, ptr %client.addr, align 8
  call void %8(ptr noundef %9)
  br label %if.end

if.end:                                           ; preds = %if.then, %land.lhs.true2, %land.lhs.true, %entry
  ret void
}