; Function Attrs: mustprogress uwtable
define void @_Z31alts_handshaker_client_shutdownP22alts_handshaker_client(ptr noundef %client) local_unnamed_addr #3 {
entry:
  %cmp.not = icmp eq ptr %client, null
  br i1 %cmp.not, label %if.end, label %land.lhs.true

land.lhs.true:                                    ; preds = %entry
  %0 = load ptr, ptr %client, align 8
  %cmp1.not = icmp eq ptr %0, null
  br i1 %cmp1.not, label %if.end, label %land.lhs.true2

land.lhs.true2:                                   ; preds = %land.lhs.true
  %shutdown = getelementptr inbounds i8, ptr %0, i64 24
  %1 = load ptr, ptr %shutdown, align 8
  %cmp4.not = icmp eq ptr %1, null
  br i1 %cmp4.not, label %if.end, label %if.then

if.then:                                          ; preds = %land.lhs.true2
  tail call void %1(ptr noundef nonnull %client)
  br label %if.end

if.end:                                           ; preds = %if.then, %land.lhs.true2, %land.lhs.true, %entry
  ret void
}